target datalayout = "e-m:e-p270:32:32-p271:32:32-p272:64:64-i64:64-i128:128-f80:128-n8:16:32:64-S128"
target triple = "x86_64-pc-linux-gnu"

%class.ShenandoahSimpleBitMap = type { i64, i64, ptr }

; Function Attrs: mustprogress nounwind uwtable
define hidden void @_ZN22ShenandoahSimpleBitMapD2Ev(ptr noundef nonnull align 8 dereferenceable(24) %0) unnamed_addr #1 align 2 {
  %2 = alloca ptr, align 8
  store ptr %0, ptr %2, align 8
  %3 = load ptr, ptr %2, align 8
  %4 = getelementptr inbounds %class.ShenandoahSimpleBitMap, ptr %3, i32 0, i32 2
  %5 = load ptr, ptr %4, align 8
  %6 = icmp ne ptr %5, null
  br i1 %6, label %7, label %10

7:                                                ; preds = %1
  %8 = getelementptr inbounds %class.ShenandoahSimpleBitMap, ptr %3, i32 0, i32 2
  %9 = load ptr, ptr %8, align 8
  call void @_Z8FreeHeapPv(ptr noundef %9)
  br label %10

10:                                               ; preds = %7, %1
  ret void
}