; Function Attrs: mustprogress nounwind uwtable
define hidden void @_ZN22ShenandoahSimpleBitMapD2Ev(ptr nocapture noundef nonnull readonly align 8 dereferenceable(24) %0) unnamed_addr #0 align 2 {
  %2 = getelementptr inbounds i8, ptr %0, i64 16
  %3 = load ptr, ptr %2, align 8
  %.not = icmp eq ptr %3, null
  br i1 %.not, label %5, label %4

4:                                                ; preds = %1
  tail call void @_Z8FreeHeapPv(ptr noundef nonnull %3) #5
  br label %5

5:                                                ; preds = %4, %1
  ret void
}